Open Watcom Linker Version 2.0 beta Sep  3 2024 02:05:05 (32-bit)
Copyright (c) 2002-2024 The Open Watcom Contributors. All Rights Reserved.
Portions Copyright (c) 1985-2002 Sybase, Inc. All Rights Reserved.
Created on:       25/04/21 16:21:49
Executable Image: sqmus.exe
creating a DOS executable


                        +------------+
                        |   Groups   |
                        +------------+

Group                           Address              Size
=====                           =======              ====

DGROUP                          062f:0000            000019c0



                        +--------------+
                        |   Segments   |
                        +--------------+

Segment                Class          Group          Address         Size
=======                =====          =====          =======         ====

BEGTEXT                CODE           AUTO           0000:0000       00000007
_TEXT                  CODE           AUTO           0000:0010       000062dd
FAR_DATA               FAR_DATA       AUTO           062e:000d       00000000
_NULL                  BEGDATA        DGROUP         062f:0000       00000020
_AFTERNULL             BEGDATA        DGROUP         0631:0000       00000002
CONST                  DATA           DGROUP         0631:0002       000006e4
CONST2                 DATA           DGROUP         069f:0006       00000035
_DATA                  DATA           DGROUP         06a3:0000       000005c6
XIB                    DATA           DGROUP         06ff:0006       00000000
XI                     DATA           DGROUP         06ff:0006       00000012
XIE                    DATA           DGROUP         0700:0008       00000000
YIB                    DATA           DGROUP         0700:0008       00000000
YI                     DATA           DGROUP         0700:0008       00000012
YIE                    DATA           DGROUP         0701:000a       00000000
DATA                   DATA           DGROUP         0701:000a       00000000
_BSS                   BSS            DGROUP         0702:0000       00000988
STACK                  STACK          DGROUP         079b:0000       00000300


                        +----------------+
                        |   Memory Map   |
                        +----------------+

* = unreferenced symbol
+ = symbol only referenced locally

Address        Symbol
=======        ======

Module: sqmus.obj(C:\SQMUS\sqmus.c)
062f:0d30      _AdLibInstrumentList
062f:1120+     _muslocation
062f:1124+     _currentsong_int_count
062f:1128+     _myargc
062f:112a+     _myargv
062f:112c+     _currentsong_length
062f:112e+     _currentsong_start_offset
062f:1130+     _currentsong_looping
062f:1132+     _currentsong_num_instruments
062f:0740      _playingdriver
062f:0742+     _currentsong_ticks_to_process
062f:0744      _playingstate
062f:0746      _playingpercussMask
062f:0748      _playingvolume
062f:074c      _playingtime
062f:0750+     _called
062f:0752+     _finishplaying
062f:0754+     _loops_enabled
062f:0756+     _opl_valid_instruments
0000:0010*     donothing_
0000:0012+     far_fread_
0000:009c+     MUS_Parseheader_
0000:01da*     playpcspeakernote_
0000:0212*     stoppcspeaker_
0000:022e+     MUS_ServiceRoutine_
0000:03e8+     tryloaddrivertype_
0000:0510+     attemptDetectingAnyHardware_
0000:0536+     sigint_catcher_
0000:055a+     locallib_strlwr_
0000:057c+     locallib_strcmp_
0000:05ae+     locallib_toupper_
0000:05ba+     checkparm_
0000:0604+     findfilenameparm_
0000:06b4      main_
062f:0758+     _pc_speaker_freq_table
062f:0858*     _next
062f:085a*     _lastvalue
062f:1134+     _currentsong_primary_channels
062f:1136+     _currentsong_secondary_channels
062f:1138*     _sfxlength_currentsample
062f:113a+     _currentsong_play_timer
062f:113c+     _currentsong_playing_offset
062f:113e*     _sfxlength
062f:1140      _instrumentlookup
062f:11ef*     _playingpcspeakersfx
Module: sqmusopl.obj(C:\SQMUS\sqmusopl.c)
0000:0b30+     OPLwriteReg_
0000:0b6c+     OPLwriteChannel_
0000:0ba4*     OPLwriteValue_
0000:0bc2+     OPLwriteFreq_
0000:0c14+     OPLconvertVolume_
0000:0c34*     OPLpanVolume_
0000:0c5c+     OPLwriteVolume_
0000:0cb0+     OPLwritePan_
0000:0ce4+     OPLwriteInstrument_
0000:0d68*     OPLinit_
0000:0d96+     OPLshutup_
0000:0e18+     OPLdeinit_
0000:0e50+     OPL2detect_
0000:0e50      OPL2detectHardware_
0000:0ed2*     OPL3detect_
0000:0ed2      OPL3detectHardware_
0000:0eee+     writeFrequency_
0000:0f88+     writeModulation_
0000:0fce+     calcVolumeOPL_
0000:0fe8+     occupyChannel_
0000:1158+     releaseChannel_
0000:11c2+     releaseSustain_
0000:1200+     findFreeChannel_
0000:12f4+     getInstrument_
0000:136a+     OPLplayNote_
0000:144a+     OPLreleaseNote_
0000:14b4+     OPLpitchWheel_
0000:154e+     OPLchangeControl_
0000:16e2+     OPLplayMusic_
0000:1700+     OPLstopMusic_
0000:1738+     OPLchangeSystemVolume_
0000:17aa+     OPLinitDriver_
0000:17ee+     OPL2initHardware_
0000:17f6+     OPL3initHardware_
0000:1800+     OPL3deinitHardware_
0000:1800+     OPL2deinitHardware_
062f:085e+     _OPLport
062f:0860+     _OPLchannels
062f:0861+     _OPL3mode
062f:0862+     _op_num
062f:0886+     _reg_num
062f:08aa+     _noteVolumetable
062f:092a      _OPL2driver
062f:0945      _OPL3driver
062f:0960+     _OPLsinglevoice
062f:0962+     _freqtable
062f:0970+     _freqtable2
062f:0988+     _pitchwheeltable
062f:11f0+     _OPL2driverdata
062f:1260+     _channels
Module: sqmusmpu.obj(C:\SQMUS\sqmusmpu.c)
0000:1810+     MPU401sendByte_
0000:185e*     MPU401sendBlock_
0000:18a8*     MPU401reset_
0000:18b8+     MPU401deinitHardware_
0000:18be+     MPU401sendMIDI_
0000:1902      MPU401detectHardware_
0000:1914+     MPU401initHardware_
0000:1924+     MPU401sendCommand_
062f:0a8a+     _MPU401port
062f:0a8c      _runningStatus
062f:0a8d      _MPU401driver
Module: sqmusmid.obj(C:\SQMUS\sqmusmid.c)
0000:1960*     calcVolume_
0000:1970+     stopChannel_
0000:199e+     findFreeMIDIChannel_
0000:1a4a+     updateControllers_
0000:1b26+     sendSystemVolume_
0000:1b7c      MIDIplayNote_
0000:1c48      MIDIreleaseNote_
0000:1cae      MIDIpitchWheel_
0000:1d1c      MIDIchangeControl_
0000:1de4      MIDIplayMusic_
0000:1e72      MIDIstopMusic_
0000:1eec      MIDIchangeSystemVolume_
0000:1ef8      MIDIinitDriver_
062f:0706+     _MUS2MIDIctrl
062f:1360+     _mididriverData
062f:1440+     _MIDItime
062f:1480+     _MIDIchannels
062f:1490*     _percussMask
Module: sqmussbm.obj(C:\SQMUS\sqmussbm.c)
0000:1f30+     SBMIDIsendByte_
0000:1f82*     SBMIDIsendBlock_
0000:1fa2+     SBMIDIsendMIDI_
0000:1fe0      SBMIDIdetectHardware_
0000:1fe8+     SBMIDIinitHardware_
0000:1fec+     SBMIDIdeinitHardware_
062f:0aa8+     _SBMIDIport
062f:0aaa      _SBMIDIdriver
Module: sqmussfx.obj(C:\SQMUS\sqmussfx.c)
062f:14a0*     _sb_dma_buffer
062f:14b0+     _sb_voicelist
062f:1500+     _SB_DMABuffer
062f:1504+     _SB_OldInt
062f:1508      _sb_sfx_info
062f:156c+     _SB_HaltTransferCommand
062f:156e+     _SB_TotalDMABufferSize
062f:1570+     _SB_IntController1Mask
062f:1572+     _SB_IntController2Mask
062f:1574+     _SB_DMABufferSegment
062f:0ad0      _sfxfilename
062f:0ae4+     _sb_port
062f:0ae6+     _sb_dma
062f:0ae8+     _sb_irq
062f:0aea+     _sb_dma_16
062f:0aeb+     _sb_dma_8
062f:0aec+     _SB_MixerType
062f:0aed*     _SB_OriginalMidiVolumeLeft
062f:0aee*     _SB_OriginalMidiVolumeRight
062f:0aef+     _SB_OriginalVoiceVolumeLeft
062f:0af0+     _SB_OriginalVoiceVolumeRight
0000:2000+     SB_Service_Mix22Khz_
0000:2196+     SB_Service_Mix11Khz_
0000:22bc+     SB_ServiceInterrupt_
0000:23ee      SB_PlaySoundEffect_
0000:2476+     SB_WriteDSP_
0000:24aa+     SB_ReadDSP_
0000:24d8+     SB_ResetDSP_
0000:2538+     SB_SetPlaybackRate_
0000:2556*     SB_SetMixMode_
0000:258e+     SB_DSP1xx_BeginPlayback_
0000:25ac+     SB_DSP2xx_BeginPlayback_
0000:25d0+     SB_DSP4xx_BeginPlayback_
0000:25f4+     SB_DMA_VerifyChannel_
0000:2606+     DMA_SetupTransfer_
0000:271a+     SB_SetupDMABuffer_
0000:277e+     SB_EnableInterrupt_
0000:27c4      SB_SetupPlayback_
0000:2814+     SB_DMA_EndTransfer_
0000:2850+     SB_DisableInterrupt_
0000:28ce*     SB_StopPlayback_
0000:28fa+     SB_ReadMixer_
0000:2910+     SB_WriteMixer_
0000:2926+     SB_SaveVoiceVolume_
0000:2954+     SB_RestoreVoiceVolume_
0000:2992      SB_Shutdown_
0000:29e0+     SB_GetDSPVersion_
0000:2a3a      SB_InitCard_
062f:0af4+     _SB_BUFFERS
062f:0afc+     _current_sampling_rate
062f:0afd+     _last_sampling_rate
062f:0afe+     _change_sampling_to_22_next_int
062f:0aff+     _change_sampling_to_11_next_int
062f:0b00*     _current_buffer_head
062f:0b01+     _IRQ_TO_INTERRUPT_MAP
062f:0b11+     _DMA_PortInfo
062f:1576+     _SB_DSP_Version
062f:1578+     _SB_CurrentDMABufferOffset
062f:157a+     _SB_DMABufferEndOffset
062f:157c+     _SB_Mixer_Status
Module: dmx.obj(C:\SQMUS\dmx.c)
0000:2b10*     TS_FreeTaskList_
0000:2b12+     TS_SetClockSpeed_
0000:2b5c+     TS_SetTimer_
0000:2b90*     TS_SetTimerToMaxTaskRate_
0000:2b9e+     TS_ServiceScheduleIntEnabled_
0000:2c5a      TS_Startup_
0000:2c9e      TS_ScheduleTask_
0000:2cc2      TS_Dispatch_
0000:2ccc      TS_Shutdown_
062f:0b30+     _TaskServiceRate
062f:0b34+     _TS_Installed
062f:0b35+     _TS_InInterrupt
062f:1580+     _OldInt8
062f:1584+     _TaskServiceCount
062f:1588+     _TS_TimesInInterrupt
062f:158a+     _HeadTask
Module: C:\WATCOM2\lib286\dos\clibs.lib(fread.c)
0000:2cf8      fread_
Module: C:\WATCOM2\lib286\dos\clibs.lib(printf.c)
0000:2e93      printf_
Module: C:\WATCOM2\lib286\dos\clibs.lib(exit.c)
0000:2ea8      __null_int23_exit_
0000:2ea9      exit_
0000:2ec5*     _exit_
062f:0b36      ___int23_exit
062f:0b38+     ___FPE_handler_exit
Module: C:\WATCOM2\lib286\dos\clibs.lib(fopen.c)
0000:2ed4+     __open_flags_
0000:3074+     _fsopen_
0000:30b6      fopen_
0000:3115*     freopen_
Module: C:\WATCOM2\lib286\dos\clibs.lib(fseek.c)
0000:31ac      fseek_
Module: C:\WATCOM2\lib286\dos\clibs.lib(ftell.c)
0000:32bd      ftell_
Module: C:\WATCOM2\lib286\dos\clibs.lib(fmalloc.c)
0000:330b      _fmalloc_
062f:0b3a+     ___fheapbeg
062f:0b3c      ___fheapRover
062f:0b3e      ___LargestSizeB4Rover
Module: C:\WATCOM2\lib286\dos\clibs.lib(fclose.c)
0000:33ed      __doclose_
0000:347b      __shutdown_stream_
0000:348c      fclose_
062f:1598+     ___RmTmpFileFn
Module: C:\WATCOM2\lib286\dos\clibs.lib(fgetc.c)
0000:34ae      __fill_buffer_
0000:3563      fgetc_
Module: C:\WATCOM2\lib286\dos\clibs.lib(signl.c)
0000:363c+     __sigfpe_handler_
0000:3664      signal_
0000:36f1      raise_
Module: C:\WATCOM2\lib286\dos\clibs.lib(bioskeyb.c)
0000:3784      _bios_keybrd_
Module: C:\WATCOM2\lib286\dos\clibs.lib(ffree.c)
0000:3787      _ffree_
Module: C:\WATCOM2\lib286\dos\clibs.lib(i4d.asm)
0000:37c2      __I4D
0000:380b      __U4D
Module: C:\WATCOM2\lib286\dos\clibs.lib(i4m.asm)
0000:3890*     __I4M
0000:3890      __U4M
Module: C:\WATCOM2\lib286\dos\clibs.lib(cprintf.c)
0000:38bd*     vcprintf_
0000:38ce      cprintf_
Module: C:\WATCOM2\lib286\dos\clibs.lib(cstart)
0000:0003*     ___begtext
062f:0000*     __nullarea
0000:38e8      _cstart_
0000:3a92      __exit_
0000:3aaf      __do_exit_with_msg_
0000:3b75      __GETDS
Module: C:\WATCOM2\lib286\dos\clibs.lib(cmodel.asm)
0000:3b80      _small_code_
0000:3b80*     CodeModelMismatch
Module: C:\WATCOM2\lib286\dos\clibs.lib(argcv.c)
062f:159a      __argc
062f:159c      __argv
062f:159e      ___argc
062f:15a0      ___argv
Module: C:\WATCOM2\lib286\dos\clibs.lib(chainint)
0000:3b80      _chain_intr_
Module: C:\WATCOM2\lib286\dos\clibs.lib(d_setvec.c)
0000:3ba0      _dos_setvect_
Module: C:\WATCOM2\lib286\dos\clibs.lib(d_getvec.c)
0000:3bad      _dos_getvect_
Module: C:\WATCOM2\lib286\dos\clibs.lib(qread.c)
0000:3bb8      __qread_
Module: C:\WATCOM2\lib286\dos\clibs.lib(errno.c)
0000:3bce      __get_errno_ptr_
062f:15a2+     _errno
Module: C:\WATCOM2\lib286\dos\clibs.lib(ioalloc.c)
0000:3bd2      __ioalloc_
Module: C:\WATCOM2\lib286\dos\clibs.lib(iob.c)
062f:0b5e      ___iob
062f:15a4      ___OpenStreams
062f:15a6      ___ClosedStreams
Module: C:\WATCOM2\lib286\dos\clibs.lib(fprtf.c)
0000:3c4f      __fprtf_
Module: C:\WATCOM2\lib286\dos\clibs.lib(initrtns.c)
0000:3d18*     __FInitRtns
0000:3d1c      __InitRtns
0000:3d73*     __FFiniRtns
0000:3d77      __FiniRtns
Module: C:\WATCOM2\lib286\dos\clibs.lib(comtflag.c)
0000:3dd5*     __set_commode_
062f:0c76      __commode
Module: C:\WATCOM2\lib286\dos\clibs.lib(textmode.c)
062f:0c78      __fmode
Module: C:\WATCOM2\lib286\dos\clibs.lib(tolower.c)
0000:3ddc      tolower_
Module: C:\WATCOM2\lib286\dos\clibs.lib(open.c)
0000:3f98*     open_
0000:3fb7      _sopen_
Module: C:\WATCOM2\lib286\dos\clibs.lib(chktty.c)
0000:3fd1      __chktty_
Module: C:\WATCOM2\lib286\dos\clibs.lib(freefp.c)
0000:3ff6      __freefp_
0000:401a      __purgefp_
Module: C:\WATCOM2\lib286\dos\clibs.lib(allocfp.c)
0000:4031      __allocfp_
Module: C:\WATCOM2\lib286\dos\clibs.lib(lseek.c)
0000:40bd      lseek_
Module: C:\WATCOM2\lib286\dos\clibs.lib(flush.c)
0000:40e8      __flush_
Module: C:\WATCOM2\lib286\dos\clibs.lib(tell.c)
0000:41d4      _tell_
Module: C:\WATCOM2\lib286\dos\clibs.lib(fflush.c)
0000:41e3      fflush_
Module: C:\WATCOM2\lib286\dos\clibs.lib(mem.c)
0000:41f0      __MemAllocator
0000:42b8      __MemFree
Module: C:\WATCOM2\lib286\dos\clibs.lib(growseg.c)
0000:4432      __GrowSeg_
Module: C:\WATCOM2\lib286\dos\clibs.lib(allocseg.c)
0000:4506      __AllocSeg_
Module: C:\WATCOM2\lib286\dos\clibs.lib(fmemneed.c)
0000:45b0      __fmemneed_
Module: C:\WATCOM2\lib286\dos\clibs.lib(nmalloc.c)
0000:45b3      _nmalloc_
0000:45b3      malloc_
062f:0c7a      ___nheapbeg
062f:0c7c      ___MiniHeapRover
062f:0c7e      ___LargestSizeB4MiniHeapRover
Module: C:\WATCOM2\lib286\dos\clibs.lib(__lseek.c)
0000:466c      __lseek_
Module: C:\WATCOM2\lib286\dos\clibs.lib(_clse.c)
0000:46a4      __close_
Module: C:\WATCOM2\lib286\dos\clibs.lib(nfree.c)
0000:46d6      _nfree_
0000:46d6      free_
062f:15a8+     ___MiniHeapFreeRover
Module: C:\WATCOM2\lib286\dos\clibs.lib(flushall.c)
0000:4799      __flushall_
0000:47ca      flushall_
Module: C:\WATCOM2\lib286\dos\clibs.lib(gtche.c)
0000:47cf      getche_
Module: C:\WATCOM2\lib286\dos\clibs.lib(crwdata)
062f:0c80      __curbrk
062f:0c88      __STACKLOW
062f:0c8a      __STACKTOP
062f:0c8c      __cbyte
062f:0c8e      __child
062f:0c90      __no87
062f:0c9d      ___FPE_handler
062f:0c82      __psp
062f:0c91      __get_ovl_stack
062f:0c95      __restore_ovl_stack
062f:0c99      __close_ovl_file
062f:0ca1      __LpCmdLine
062f:0ca5      __LpPgmName
062f:0c84      __osmajor
062f:0c85      __osminor
062f:0c86      __osmode
062f:0c87      __HShift
Module: C:\WATCOM2\lib286\dos\clibs.lib(abort.c)
0000:47e4*     abort_
0000:47ef      __terminate_
062f:0caa      ___abort
Module: C:\WATCOM2\lib286\dos\clibs.lib(sigsy.c)
0000:487a      __restore_int23_
0000:48cb      __restore_int_ctrl_break_
0000:4909      __grab_int23_
0000:4953      __grab_int_ctrl_break_
Module: C:\WATCOM2\lib286\dos\clibs.lib(func086.asm)
0000:4994*     __ibm_bios_equiplist_
0000:4997      __ibm_bios_keybrd_
0000:49ac*     __ibm_bios_memsize_
0000:49af*     __ibm_bios_printer_
0000:49ba*     __ibm_bios_serialcom_
Module: C:\WATCOM2\lib286\dos\clibs.lib(putch.c)
0000:49c1      putch_
Module: C:\WATCOM2\lib286\dos\clibs.lib(prtf.c)
0000:5306      __prtf_
Module: C:\WATCOM2\lib286\dos\clibs.lib(xmsg.c)
0000:550a*     __exit_with_msg_
0000:550d      __fatal_runtime_error_
Module: C:\WATCOM2\lib286\dos\clibs.lib(cmain086.c)
0000:5524      __CMain
Module: C:\WATCOM2\lib286\dos\clibs.lib(uselfn.c)
062f:0cb4      ___uselfn
Module: C:\WATCOM2\lib286\dos\clibs.lib(dosseg)
0000:5532      __DOSseg__
Module: C:\WATCOM2\lib286\dos\clibs.lib(initargv.c)
0000:5698      __Init_Argv_
0000:56c9      __Fini_Argv_
Module: C:\WATCOM2\lib286\dos\clibs.lib(dosret.c)
0000:56d4      __set_errno_dos_
0000:5734*     __set_errno_dos_reterr_
Module: C:\WATCOM2\lib286\dos\clibs.lib(initfile.c)
0000:573e      __InitFiles_
Module: C:\WATCOM2\lib286\dos\clibs.lib(ioexit.c)
0000:5816*     fcloseall_
0000:581b      __full_io_exit_
Module: C:\WATCOM2\lib286\dos\clibs.lib(fputc.c)
0000:5823      fputc_
Module: C:\WATCOM2\lib286\dos\clibs.lib(sgdef086)
062f:0d06      __Start_XI
062f:0d18      __End_XI
062f:0d18      __Start_YI
062f:0d2a      __End_YI
Module: C:\WATCOM2\lib286\dos\clibs.lib(opendos.c)
0000:58cc      _dos_open_
Module: C:\WATCOM2\lib286\dos\clibs.lib(iomode.c)
0000:58e0      __GetIOMode_
0000:58f7      __SetIOMode_nogrow_
062f:0cca      ___NFiles
062f:0ccc      ___init_mode
062f:0cf4      ___io_mode
Module: C:\WATCOM2\lib286\dos\clibs.lib(isatt.c)
0000:590c      isatty_
Module: C:\WATCOM2\lib286\dos\clibs.lib(doserrno.c)
0000:5928      __get_doserrno_ptr_
062f:15ac+     __doserrno
Module: C:\WATCOM2\lib286\dos\clibs.lib(umaskval.c)
062f:0cf6      ___umaskval
Module: C:\WATCOM2\lib286\dos\clibs.lib(creatdos.c)
0000:592c      _dos_creat_
0000:593e*     _dos_creatnew_
Module: C:\WATCOM2\lib286\dos\clibs.lib(stiomode.c)
0000:5950+     __grow_iomode_
0000:59d7+     __shrink_iomode_
0000:59f0      __SetIOMode_
Module: C:\WATCOM2\lib286\dos\clibs.lib(qwrit.c)
0000:5a41      __qwrite_
Module: C:\WATCOM2\lib286\dos\clibs.lib(fsync.c)
0000:5a9a      fsync_
Module: C:\WATCOM2\lib286\dos\clibs.lib(heapen.c)
0000:5a9d*     _heapenable_
062f:0cf8      ___heap_enabled
Module: C:\WATCOM2\lib286\dos\clibs.lib(amblksiz.c)
062f:0cfa      __amblksiz
Module: C:\WATCOM2\lib286\dos\clibs.lib(nmemneed.c)
0000:5aa9      __nmemneed_
Module: C:\WATCOM2\lib286\dos\clibs.lib(grownear.c)
0000:5b12+     __LastFree_
0000:5b79      __ExpandDGROUP_
Module: C:\WATCOM2\lib286\dos\clibs.lib(wctomb.c)
0000:5c4c      wctomb_
Module: C:\WATCOM2\lib286\dos\clibs.lib(itoa.c)
0000:5c69+     utoa_
0000:5cae      itoa_
Module: C:\WATCOM2\lib286\dos\clibs.lib(noefgfmt.c)
062f:0cfc      ___EFG_printf
062f:0cfe*     ___EFG_scanf
Module: C:\WATCOM2\lib286\dos\clibs.lib(lltoa.c)
0000:5cd6      ulltoa_
0000:5d9a*     lltoa_
Module: C:\WATCOM2\lib286\dos\clibs.lib(strupr.c)
0000:5ded      _strupr_
Module: C:\WATCOM2\lib286\dos\clibs.lib(ltoa.c)
0000:5e0d      ultoa_
0000:5e60*     ltoa_
Module: C:\WATCOM2\lib286\dos\clibs.lib(mbisdbcs.c)
062f:0d00      ___IsDBCS
Module: C:\WATCOM2\lib286\dos\clibs.lib(mbislead.c)
0000:5e80*     _ismbblead_
062f:15b0      ___MBCSIsTable
Module: C:\WATCOM2\lib286\dos\clibs.lib(enterdb.c)
0000:5e95      __EnterWVIDEO_
062f:0d02+     __WD_Present
Module: C:\WATCOM2\lib286\dos\clibs.lib(___argc.c)
062f:16b2      ____Argv
062f:16b4      ____Argc
Module: C:\WATCOM2\lib286\dos\clibs.lib(histsplt.c)
062f:16b6      ___historical_splitparms
Module: C:\WATCOM2\lib286\dos\clibs.lib(error086.asm)
0000:5eb2      __doserror_
0000:5ebe*     __doserror1_
Module: C:\WATCOM2\lib286\dos\clibs.lib(nrealloc.c)
0000:5ec8*     _nrealloc_
0000:5ec8      realloc_
Module: C:\WATCOM2\lib286\dos\clibs.lib(iomodtty.c)
0000:5f34      __ChkTTYIOMode_
0000:5f66*     __IOMode_
Module: C:\WATCOM2\lib286\dos\clibs.lib(filedos.c)
0000:5f73*     _dos_close_
0000:5f7f      _dos_commit_
Module: C:\WATCOM2\lib286\dos\clibs.lib(sbrk.c)
0000:5f8c      __brk_
0000:5fe0*     sbrk_
Module: C:\WATCOM2\lib286\dos\clibs.lib(alphabet.c)
062f:0716      ___Alphabet
Module: C:\WATCOM2\lib286\dos\clibs.lib(mbinit.c)
0000:6043      __mbinit_
062f:0d04+     ___MBCodePage
Module: C:\WATCOM2\lib286\dos\clibs.lib(nmsize.c)
0000:60aa*     _msize_
0000:60aa      _nmsize_
Module: C:\WATCOM2\lib286\dos\clibs.lib(nexpand.c)
0000:60b9      _nexpand_
0000:60b9*     _expand_
Module: C:\WATCOM2\lib286\dos\clibs.lib(getltdos.c)
0000:6104      dos_get_dbcs_lead_table_
Module: C:\WATCOM2\lib286\dos\clibs.lib(getcpdos.c)
0000:612d      dos_get_code_page_
Module: C:\WATCOM2\lib286\dos\clibs.lib(_expand.c)
0000:613d      __HeapManager_expand_
Module: C:\WATCOM2\lib286\dos\clibs.lib(bfree.c)
0000:62cc      _bfree_


                        +--------------------+
                        |   Libraries Used   |
                        +--------------------+

C:\WATCOM2\lib286\dos\clibs.lib


                        +-----------------------+
                        |   Linker Statistics   |
                        +-----------------------+

Stack size:  0300 (768.)
Memory size:  7cb0 (31920.)
Entry point address: 0000:38e8
Link time: 00:00.85
